target datalayout = "e-m:e-p270:32:32-p271:32:32-p272:64:64-i64:64-i128:128-f80:128-n8:16:32:64-S128"
target triple = "x86_64-pc-linux-gnu"

%"class.cv::tinyxml2::StrPair" = type { i32, ptr, ptr }
%"class.cv::tinyxml2::XMLNode" = type { ptr, ptr, ptr, %"class.cv::tinyxml2::StrPair", ptr, ptr, ptr, ptr, ptr }
%"class.cv::tinyxml2::XMLElement" = type { %"class.cv::tinyxml2::XMLNode", i32, ptr }

; Function Attrs: mustprogress nounwind uwtable
define linkonce_odr hidden void @_ZN2cv8tinyxml27StrPairC2Ev(ptr noundef nonnull align 8 dereferenceable(24) %0) unnamed_addr #0 comdat align 2 {
  %2 = alloca ptr, align 8
  store ptr %0, ptr %2, align 8, !tbaa !3
  %3 = load ptr, ptr %2, align 8
  %4 = getelementptr inbounds nuw %"class.cv::tinyxml2::StrPair", ptr %3, i32 0, i32 0
  store i32 0, ptr %4, align 8, !tbaa !8
  %5 = getelementptr inbounds nuw %"class.cv::tinyxml2::StrPair", ptr %3, i32 0, i32 1
  store ptr null, ptr %5, align 8, !tbaa !12
  %6 = getelementptr inbounds nuw %"class.cv::tinyxml2::StrPair", ptr %3, i32 0, i32 2
  store ptr null, ptr %6, align 8, !tbaa !13
  ret void
}

; Function Attrs: mustprogress uwtable
define hidden void @_ZN2cv8tinyxml27XMLNodeC2EPNS0_11XMLDocumentE(ptr noundef nonnull align 8 dereferenceable(88) %0, ptr noundef %1) unnamed_addr #3 align 2 {
  %3 = alloca ptr, align 8
  %4 = alloca ptr, align 8
  store ptr %0, ptr %3, align 8, !tbaa !55
  store ptr %1, ptr %4, align 8, !tbaa !50
  %5 = load ptr, ptr %3, align 8
  store ptr getelementptr inbounds inrange(-16, 144) ({ [20 x ptr] }, ptr @_ZTVN2cv8tinyxml27XMLNodeE, i32 0, i32 0, i32 2), ptr %5, align 8, !tbaa !92
  %6 = getelementptr inbounds nuw %"class.cv::tinyxml2::XMLNode", ptr %5, i32 0, i32 1
  %7 = load ptr, ptr %4, align 8, !tbaa !50
  store ptr %7, ptr %6, align 8, !tbaa !115
  %8 = getelementptr inbounds nuw %"class.cv::tinyxml2::XMLNode", ptr %5, i32 0, i32 2
  store ptr null, ptr %8, align 8, !tbaa !116
  %9 = getelementptr inbounds nuw %"class.cv::tinyxml2::XMLNode", ptr %5, i32 0, i32 3
  call void @_ZN2cv8tinyxml27StrPairC2Ev(ptr noundef nonnull align 8 dereferenceable(24) %9)
  %10 = getelementptr inbounds nuw %"class.cv::tinyxml2::XMLNode", ptr %5, i32 0, i32 4
  store ptr null, ptr %10, align 8, !tbaa !113
  %11 = getelementptr inbounds nuw %"class.cv::tinyxml2::XMLNode", ptr %5, i32 0, i32 5
  store ptr null, ptr %11, align 8, !tbaa !117
  %12 = getelementptr inbounds nuw %"class.cv::tinyxml2::XMLNode", ptr %5, i32 0, i32 6
  store ptr null, ptr %12, align 8, !tbaa !118
  %13 = getelementptr inbounds nuw %"class.cv::tinyxml2::XMLNode", ptr %5, i32 0, i32 7
  store ptr null, ptr %13, align 8, !tbaa !114
  %14 = getelementptr inbounds nuw %"class.cv::tinyxml2::XMLNode", ptr %5, i32 0, i32 8
  store ptr null, ptr %14, align 8, !tbaa !57
  ret void
}

; Function Attrs: mustprogress uwtable
define hidden void @_ZN2cv8tinyxml210XMLElementC2EPNS0_11XMLDocumentE(ptr noundef nonnull align 8 dereferenceable(104) %0, ptr noundef %1) unnamed_addr #3 align 2 {
  %3 = alloca ptr, align 8
  %4 = alloca ptr, align 8
  store ptr %0, ptr %3, align 8, !tbaa !121
  store ptr %1, ptr %4, align 8, !tbaa !50
  %5 = load ptr, ptr %3, align 8
  %6 = load ptr, ptr %4, align 8, !tbaa !50
  call void @_ZN2cv8tinyxml27XMLNodeC2EPNS0_11XMLDocumentE(ptr noundef nonnull align 8 dereferenceable(88) %5, ptr noundef %6)
  store ptr getelementptr inbounds inrange(-16, 144) ({ [20 x ptr] }, ptr @_ZTVN2cv8tinyxml210XMLElementE, i32 0, i32 0, i32 2), ptr %5, align 8, !tbaa !92
  %7 = getelementptr inbounds nuw %"class.cv::tinyxml2::XMLElement", ptr %5, i32 0, i32 1
  store i32 0, ptr %7, align 8, !tbaa !140
  %8 = getelementptr inbounds nuw %"class.cv::tinyxml2::XMLElement", ptr %5, i32 0, i32 2
  store ptr null, ptr %8, align 8, !tbaa !152
  ret void
}